#include <math.h>
#include <stdio.h>
#include <stdlib.h>
#include <string.h>

void main()
{
	int n, input, output;
	int num[300];
	int i, j;
	scanf("%d", &n);
	scanf("%d", &num[0]);
	printf("%d", num[0]);
	for (i=1; i<n; i++)
	{
		scanf("%d", &num[i]);
		output=1;
		for (j=0; j<i; j++)
		{
			if (num[j]==num[i])
			{
				output=0;
			}
		}
		if (output==1)
		{
			printf(",%d",num[i]);
		}
	}
}
