; ModuleID = 'source-C-CXX/52/484.c'
source_filename = "source-C-CXX/52/484.c"
target datalayout = "e-m:e-p270:32:32-p271:32:32-p272:64:64-i64:64-f80:128-n8:16:32:64-S128"
target triple = "x86_64-pc-linux-gnu"

@.str = private unnamed_addr constant [3 x i8] c"%d\00", align 1
@.str.1 = private unnamed_addr constant [4 x i8] c",%d\00", align 1

; Function Attrs: nofree nounwind sspstrong uwtable
define dso_local void @main() local_unnamed_addr #0 {
  %1 = alloca i32, align 4
  %2 = alloca [300 x i32], align 16
  %3 = bitcast i32* %1 to i8*
  call void @llvm.lifetime.start.p0i8(i64 4, i8* nonnull %3) #3
  %4 = bitcast [300 x i32]* %2 to i8*
  call void @llvm.lifetime.start.p0i8(i64 1200, i8* nonnull %4) #3
  %5 = call i32 (i8*, ...) @__isoc99_scanf(i8* getelementptr inbounds ([3 x i8], [3 x i8]* @.str, i64 0, i64 0), i32* nonnull %1)
  %6 = getelementptr inbounds [300 x i32], [300 x i32]* %2, i64 0, i64 0
  %7 = call i32 (i8*, ...) @__isoc99_scanf(i8* getelementptr inbounds ([3 x i8], [3 x i8]* @.str, i64 0, i64 0), i32* nonnull %6)
  %8 = load i32, i32* %6, align 16, !tbaa !5
  %9 = call i32 (i8*, ...) @printf(i8* nonnull dereferenceable(1) getelementptr inbounds ([3 x i8], [3 x i8]* @.str, i64 0, i64 0), i32 %8)
  %10 = load i32, i32* %1, align 4, !tbaa !5
  %11 = icmp sgt i32 %10, 1
  br i1 %11, label %12, label %76

12:                                               ; preds = %0, %70
  %13 = phi i64 [ %75, %70 ], [ 0, %0 ]
  %14 = phi i64 [ %71, %70 ], [ 1, %0 ]
  %15 = add i64 %13, 1
  %16 = getelementptr inbounds [300 x i32], [300 x i32]* %2, i64 0, i64 %14
  %17 = call i32 (i8*, ...) @__isoc99_scanf(i8* getelementptr inbounds ([3 x i8], [3 x i8]* @.str, i64 0, i64 0), i32* nonnull %16)
  %18 = load i32, i32* %16, align 4, !tbaa !5
  %19 = and i64 %15, 3
  %20 = icmp ult i64 %13, 3
  br i1 %20, label %49, label %21

21:                                               ; preds = %12
  %22 = and i64 %15, -4
  br label %23

23:                                               ; preds = %23, %21
  %24 = phi i64 [ 0, %21 ], [ %46, %23 ]
  %25 = phi i32 [ 1, %21 ], [ %45, %23 ]
  %26 = phi i64 [ %22, %21 ], [ %47, %23 ]
  %27 = getelementptr inbounds [300 x i32], [300 x i32]* %2, i64 0, i64 %24
  %28 = load i32, i32* %27, align 16, !tbaa !5
  %29 = icmp eq i32 %28, %18
  %30 = or i64 %24, 1
  %31 = getelementptr inbounds [300 x i32], [300 x i32]* %2, i64 0, i64 %30
  %32 = load i32, i32* %31, align 4, !tbaa !5
  %33 = icmp eq i32 %32, %18
  %34 = or i64 %24, 2
  %35 = getelementptr inbounds [300 x i32], [300 x i32]* %2, i64 0, i64 %34
  %36 = load i32, i32* %35, align 8, !tbaa !5
  %37 = icmp eq i32 %36, %18
  %38 = or i64 %24, 3
  %39 = getelementptr inbounds [300 x i32], [300 x i32]* %2, i64 0, i64 %38
  %40 = load i32, i32* %39, align 4, !tbaa !5
  %41 = icmp eq i32 %40, %18
  %42 = select i1 %41, i1 true, i1 %37
  %43 = select i1 %42, i1 true, i1 %33
  %44 = select i1 %43, i1 true, i1 %29
  %45 = select i1 %44, i32 0, i32 %25
  %46 = add nuw nsw i64 %24, 4
  %47 = add i64 %26, -4
  %48 = icmp eq i64 %47, 0
  br i1 %48, label %49, label %23, !llvm.loop !9

49:                                               ; preds = %23, %12
  %50 = phi i32 [ undef, %12 ], [ %45, %23 ]
  %51 = phi i64 [ 0, %12 ], [ %46, %23 ]
  %52 = phi i32 [ 1, %12 ], [ %45, %23 ]
  %53 = icmp eq i64 %19, 0
  br i1 %53, label %65, label %54

54:                                               ; preds = %49, %54
  %55 = phi i64 [ %62, %54 ], [ %51, %49 ]
  %56 = phi i32 [ %61, %54 ], [ %52, %49 ]
  %57 = phi i64 [ %63, %54 ], [ %19, %49 ]
  %58 = getelementptr inbounds [300 x i32], [300 x i32]* %2, i64 0, i64 %55
  %59 = load i32, i32* %58, align 4, !tbaa !5
  %60 = icmp eq i32 %59, %18
  %61 = select i1 %60, i32 0, i32 %56
  %62 = add nuw nsw i64 %55, 1
  %63 = add i64 %57, -1
  %64 = icmp eq i64 %63, 0
  br i1 %64, label %65, label %54, !llvm.loop !11

65:                                               ; preds = %54, %49
  %66 = phi i32 [ %50, %49 ], [ %61, %54 ]
  %67 = icmp eq i32 %66, 1
  br i1 %67, label %68, label %70

68:                                               ; preds = %65
  %69 = call i32 (i8*, ...) @printf(i8* nonnull dereferenceable(1) getelementptr inbounds ([4 x i8], [4 x i8]* @.str.1, i64 0, i64 0), i32 %18)
  br label %70

70:                                               ; preds = %65, %68
  %71 = add nuw nsw i64 %14, 1
  %72 = load i32, i32* %1, align 4, !tbaa !5
  %73 = sext i32 %72 to i64
  %74 = icmp slt i64 %71, %73
  %75 = add i64 %13, 1
  br i1 %74, label %12, label %76, !llvm.loop !13

76:                                               ; preds = %70, %0
  call void @llvm.lifetime.end.p0i8(i64 1200, i8* nonnull %4) #3
  call void @llvm.lifetime.end.p0i8(i64 4, i8* nonnull %3) #3
  ret void
}

; Function Attrs: argmemonly mustprogress nofree nosync nounwind willreturn
declare void @llvm.lifetime.start.p0i8(i64 immarg, i8* nocapture) #1

; Function Attrs: nofree nounwind
declare noundef i32 @__isoc99_scanf(i8* nocapture noundef readonly, ...) local_unnamed_addr #2

; Function Attrs: nofree nounwind
declare noundef i32 @printf(i8* nocapture noundef readonly, ...) local_unnamed_addr #2

; Function Attrs: argmemonly mustprogress nofree nosync nounwind willreturn
declare void @llvm.lifetime.end.p0i8(i64 immarg, i8* nocapture) #1


!llvm.module.flags = !{!0, !1, !2, !3}
!llvm.ident = !{!4}

!0 = !{i32 1, !"wchar_size", i32 4}
!1 = !{i32 7, !"PIC Level", i32 2}
!2 = !{i32 7, !"PIE Level", i32 2}
!3 = !{i32 7, !"uwtable", i32 1}
!4 = !{!"clang version 13.0.0"}
!5 = !{!6, !6, i64 0}
!6 = !{!"int", !7, i64 0}
!7 = !{!"omnipotent char", !8, i64 0}
!8 = !{!"Simple C/C++ TBAA"}
!9 = distinct !{!9, !10}
!10 = !{!"llvm.loop.mustprogress"}
!11 = distinct !{!11, !12}
!12 = !{!"llvm.loop.unroll.disable"}
!13 = distinct !{!13, !10}
